target datalayout = "e-m:e-p270:32:32-p271:32:32-p272:64:64-i64:64-i128:128-f80:128-n8:16:32:64-S128"
target triple = "x86_64-pc-linux-gnu"

%struct.Clu_Man_t_ = type { i32, i32, i32, i32, i32, i32, i32, i32, i32, i32, i32, i32, i32, i32, i32, ptr, ptr, ptr, ptr, i32, i32, i32, ptr, ptr, ptr, i32, i32, i32, i32, ptr, ptr, ptr, i32, i32 }
%struct.Fra_Sml_t_ = type { ptr, i32, i32, i32, i32, i32, i32, i32, i32, [0 x i32] }
%struct.Dar_Cut_t_ = type { i32, i32, [4 x i32] }

; Function Attrs: inlinehint nounwind uwtable
define internal ptr @Fra_ObjSim(ptr noundef %0, i32 noundef %1) #2 {
  %3 = alloca ptr, align 8
  %4 = alloca i32, align 4
  store ptr %0, ptr %3, align 8, !tbaa !48
  store i32 %1, ptr %4, align 4, !tbaa !21
  %5 = load ptr, ptr %3, align 8, !tbaa !48
  %6 = getelementptr inbounds nuw %struct.Fra_Sml_t_, ptr %5, i32 0, i32 9
  %7 = getelementptr inbounds [0 x i32], ptr %6, i64 0, i64 0
  %8 = load ptr, ptr %3, align 8, !tbaa !48
  %9 = getelementptr inbounds nuw %struct.Fra_Sml_t_, ptr %8, i32 0, i32 4
  %10 = load i32, ptr %9, align 4, !tbaa !52
  %11 = load i32, ptr %4, align 4, !tbaa !21
  %12 = mul nsw i32 %10, %11
  %13 = sext i32 %12 to i64
  %14 = getelementptr inbounds i32, ptr %7, i64 %13
  ret ptr %14
}

; Function Attrs: nounwind uwtable
define i32 @Fra_ClausProcessClausesCut2(ptr noundef %0, ptr noundef %1, ptr noundef %2, ptr noundef %3) #0 {
  %5 = alloca ptr, align 8
  %6 = alloca ptr, align 8
  %7 = alloca ptr, align 8
  %8 = alloca ptr, align 8
  %9 = alloca [16 x ptr], align 16
  %10 = alloca i32, align 4
  %11 = alloca i32, align 4
  %12 = alloca i32, align 4
  %13 = alloca i32, align 4
  %14 = alloca i32, align 4
  %15 = alloca i32, align 4
  store ptr %0, ptr %5, align 8, !tbaa !3
  store ptr %1, ptr %6, align 8, !tbaa !48
  store ptr %2, ptr %7, align 8, !tbaa !50
  store ptr %3, ptr %8, align 8, !tbaa !42
  call void @llvm.lifetime.start.p0(i64 128, ptr %9) #11
  call void @llvm.lifetime.start.p0(i64 4, ptr %10) #11
  call void @llvm.lifetime.start.p0(i64 4, ptr %11) #11
  call void @llvm.lifetime.start.p0(i64 4, ptr %12) #11
  call void @llvm.lifetime.start.p0(i64 4, ptr %13) #11
  call void @llvm.lifetime.start.p0(i64 4, ptr %14) #11
  call void @llvm.lifetime.start.p0(i64 4, ptr %15) #11
  %16 = load ptr, ptr %6, align 8, !tbaa !48
  %17 = getelementptr inbounds nuw %struct.Fra_Sml_t_, ptr %16, i32 0, i32 4
  %18 = load i32, ptr %17, align 4, !tbaa !52
  %19 = load ptr, ptr %5, align 8, !tbaa !3
  %20 = getelementptr inbounds nuw %struct.Clu_Man_t_, ptr %19, i32 0, i32 12
  %21 = load i32, ptr %20, align 8, !tbaa !54
  %22 = sub nsw i32 %18, %21
  store i32 %22, ptr %15, align 4, !tbaa !21
  store i32 0, ptr %12, align 4, !tbaa !21
  br label %23

23:                                               ; preds = %47, %4
  %24 = load i32, ptr %12, align 4, !tbaa !21
  %25 = load ptr, ptr %7, align 8, !tbaa !50
  %26 = getelementptr inbounds nuw %struct.Dar_Cut_t_, ptr %25, i32 0, i32 1
  %27 = load i32, ptr %26, align 4
  %28 = lshr i32 %27, 29
  %29 = icmp slt i32 %24, %28
  br i1 %29, label %30, label %50

30:                                               ; preds = %23
  %31 = load ptr, ptr %6, align 8, !tbaa !48
  %32 = load ptr, ptr %7, align 8, !tbaa !50
  %33 = getelementptr inbounds nuw %struct.Dar_Cut_t_, ptr %32, i32 0, i32 2
  %34 = load i32, ptr %12, align 4, !tbaa !21
  %35 = sext i32 %34 to i64
  %36 = getelementptr inbounds [4 x i32], ptr %33, i64 0, i64 %35
  %37 = load i32, ptr %36, align 4, !tbaa !21
  %38 = call ptr @Fra_ObjSim(ptr noundef %31, i32 noundef %37)
  %39 = load ptr, ptr %5, align 8, !tbaa !3
  %40 = getelementptr inbounds nuw %struct.Clu_Man_t_, ptr %39, i32 0, i32 12
  %41 = load i32, ptr %40, align 8, !tbaa !54
  %42 = sext i32 %41 to i64
  %43 = getelementptr inbounds i32, ptr %38, i64 %42
  %44 = load i32, ptr %12, align 4, !tbaa !21
  %45 = sext i32 %44 to i64
  %46 = getelementptr inbounds [16 x ptr], ptr %9, i64 0, i64 %45
  store ptr %43, ptr %46, align 8, !tbaa !42
  br label %47

47:                                               ; preds = %30
  %48 = load i32, ptr %12, align 4, !tbaa !21
  %49 = add nsw i32 %48, 1
  store i32 %49, ptr %12, align 4, !tbaa !21
  br label %23, !llvm.loop !62

50:                                               ; preds = %23
  %51 = load ptr, ptr %8, align 8, !tbaa !42
  call void @llvm.memset.p0.i64(ptr align 4 %51, i8 0, i64 64, i1 false)
  store i32 0, ptr %12, align 4, !tbaa !21
  br label %52

52:                                               ; preds = %101, %50
  %53 = load i32, ptr %12, align 4, !tbaa !21
  %54 = load i32, ptr %15, align 4, !tbaa !21
  %55 = icmp slt i32 %53, %54
  br i1 %55, label %56, label %104

56:                                               ; preds = %52
  store i32 0, ptr %13, align 4, !tbaa !21
  br label %57

57:                                               ; preds = %97, %56
  %58 = load i32, ptr %13, align 4, !tbaa !21
  %59 = icmp slt i32 %58, 32
  br i1 %59, label %60, label %100

60:                                               ; preds = %57
  store i32 0, ptr %11, align 4, !tbaa !21
  store i32 0, ptr %14, align 4, !tbaa !21
  br label %61

61:                                               ; preds = %87, %60
  %62 = load i32, ptr %14, align 4, !tbaa !21
  %63 = load ptr, ptr %7, align 8, !tbaa !50
  %64 = getelementptr inbounds nuw %struct.Dar_Cut_t_, ptr %63, i32 0, i32 1
  %65 = load i32, ptr %64, align 4
  %66 = lshr i32 %65, 29
  %67 = icmp slt i32 %62, %66
  br i1 %67, label %68, label %90

68:                                               ; preds = %61
  %69 = load i32, ptr %14, align 4, !tbaa !21
  %70 = sext i32 %69 to i64
  %71 = getelementptr inbounds [16 x ptr], ptr %9, i64 0, i64 %70
  %72 = load ptr, ptr %71, align 8, !tbaa !42
  %73 = load i32, ptr %12, align 4, !tbaa !21
  %74 = sext i32 %73 to i64
  %75 = getelementptr inbounds i32, ptr %72, i64 %74
  %76 = load i32, ptr %75, align 4, !tbaa !21
  %77 = load i32, ptr %13, align 4, !tbaa !21
  %78 = shl i32 1, %77
  %79 = and i32 %76, %78
  %80 = icmp ne i32 %79, 0
  br i1 %80, label %81, label %86

81:                                               ; preds = %68
  %82 = load i32, ptr %14, align 4, !tbaa !21
  %83 = shl i32 1, %82
  %84 = load i32, ptr %11, align 4, !tbaa !21
  %85 = or i32 %84, %83
  store i32 %85, ptr %11, align 4, !tbaa !21
  br label %86

86:                                               ; preds = %81, %68
  br label %87

87:                                               ; preds = %86
  %88 = load i32, ptr %14, align 4, !tbaa !21
  %89 = add nsw i32 %88, 1
  store i32 %89, ptr %14, align 4, !tbaa !21
  br label %61, !llvm.loop !63

90:                                               ; preds = %61
  %91 = load ptr, ptr %8, align 8, !tbaa !42
  %92 = load i32, ptr %11, align 4, !tbaa !21
  %93 = sext i32 %92 to i64
  %94 = getelementptr inbounds i32, ptr %91, i64 %93
  %95 = load i32, ptr %94, align 4, !tbaa !21
  %96 = add nsw i32 %95, 1
  store i32 %96, ptr %94, align 4, !tbaa !21
  br label %97

97:                                               ; preds = %90
  %98 = load i32, ptr %13, align 4, !tbaa !21
  %99 = add nsw i32 %98, 1
  store i32 %99, ptr %13, align 4, !tbaa !21
  br label %57, !llvm.loop !64

100:                                              ; preds = %57
  br label %101

101:                                              ; preds = %100
  %102 = load i32, ptr %12, align 4, !tbaa !21
  %103 = add nsw i32 %102, 1
  store i32 %103, ptr %12, align 4, !tbaa !21
  br label %52, !llvm.loop !65

104:                                              ; preds = %52
  store i32 0, ptr %10, align 4, !tbaa !21
  store i32 0, ptr %12, align 4, !tbaa !21
  br label %105

105:                                              ; preds = %121, %104
  %106 = load i32, ptr %12, align 4, !tbaa !21
  %107 = icmp slt i32 %106, 16
  br i1 %107, label %108, label %124

108:                                              ; preds = %105
  %109 = load ptr, ptr %8, align 8, !tbaa !42
  %110 = load i32, ptr %12, align 4, !tbaa !21
  %111 = sext i32 %110 to i64
  %112 = getelementptr inbounds i32, ptr %109, i64 %111
  %113 = load i32, ptr %112, align 4, !tbaa !21
  %114 = icmp ne i32 %113, 0
  br i1 %114, label %115, label %120

115:                                              ; preds = %108
  %116 = load i32, ptr %12, align 4, !tbaa !21
  %117 = shl i32 1, %116
  %118 = load i32, ptr %10, align 4, !tbaa !21
  %119 = or i32 %118, %117
  store i32 %119, ptr %10, align 4, !tbaa !21
  br label %120

120:                                              ; preds = %115, %108
  br label %121

121:                                              ; preds = %120
  %122 = load i32, ptr %12, align 4, !tbaa !21
  %123 = add nsw i32 %122, 1
  store i32 %123, ptr %12, align 4, !tbaa !21
  br label %105, !llvm.loop !66

124:                                              ; preds = %105
  %125 = load i32, ptr %10, align 4, !tbaa !21
  call void @llvm.lifetime.end.p0(i64 4, ptr %15) #11
  call void @llvm.lifetime.end.p0(i64 4, ptr %14) #11
  call void @llvm.lifetime.end.p0(i64 4, ptr %13) #11
  call void @llvm.lifetime.end.p0(i64 4, ptr %12) #11
  call void @llvm.lifetime.end.p0(i64 4, ptr %11) #11
  call void @llvm.lifetime.end.p0(i64 4, ptr %10) #11
  call void @llvm.lifetime.end.p0(i64 128, ptr %9) #11
  ret i32 %125
}