; Function Attrs: nofree norecurse nosync nounwind memory(read, argmem: readwrite, inaccessiblemem: none) uwtable
define i32 @Fra_ClausProcessClausesCut2(ptr noundef readonly captures(none) %0, ptr noundef %1, ptr noundef readonly captures(none) %2, ptr noundef captures(none) %3) local_unnamed_addr #6 {
  %5 = alloca [16 x ptr], align 16
  call void @llvm.lifetime.start.p0(i64 128, ptr nonnull %5) #23
  %6 = getelementptr inbounds nuw i8, ptr %1, i64 20
  %7 = load i32, ptr %6, align 4, !tbaa !45
  %8 = getelementptr inbounds nuw i8, ptr %0, i64 48
  %9 = load i32, ptr %8, align 8, !tbaa !47
  %10 = sub i32 %7, %9
  %11 = getelementptr inbounds nuw i8, ptr %2, i64 4
  %12 = load i32, ptr %11, align 4
  %.not50 = icmp ult i32 %12, 536870912
  br i1 %.not50, label %._crit_edge, label %.lr.ph

.lr.ph:                                           ; preds = %4
  %13 = lshr i32 %12, 29
  %14 = getelementptr inbounds nuw i8, ptr %2, i64 8
  %15 = getelementptr inbounds nuw i8, ptr %1, i64 40
  %16 = sext i32 %9 to i64
  %invariant.gep = getelementptr i32, ptr %15, i64 %16
  %wide.trip.count = zext nneg i32 %13 to i64
  br label %17

17:                                               ; preds = %.lr.ph, %17
  %indvars.iv = phi i64 [ 0, %.lr.ph ], [ %indvars.iv.next, %17 ]
  %18 = getelementptr inbounds nuw [4 x i32], ptr %14, i64 0, i64 %indvars.iv
  %19 = load i32, ptr %18, align 4, !tbaa !38
  %20 = mul nsw i32 %19, %7
  %21 = sext i32 %20 to i64
  %gep = getelementptr i32, ptr %invariant.gep, i64 %21
  %22 = getelementptr inbounds nuw [16 x ptr], ptr %5, i64 0, i64 %indvars.iv
  store ptr %gep, ptr %22, align 8, !tbaa !48
  %indvars.iv.next = add nuw nsw i64 %indvars.iv, 1
  %exitcond.not = icmp eq i64 %indvars.iv.next, %wide.trip.count
  br i1 %exitcond.not, label %._crit_edge, label %17, !llvm.loop !56

._crit_edge:                                      ; preds = %17, %4
  tail call void @llvm.memset.p0.i64(ptr noundef nonnull align 4 dereferenceable(64) %3, i8 0, i64 64, i1 false)
  %23 = icmp sgt i32 %10, 0
  br i1 %23, label %.preheader40.preheader, label %.preheader.preheader

.preheader40.preheader:                           ; preds = %._crit_edge
  %wide.trip.count62 = zext nneg i32 %10 to i64
  br label %.preheader40

.preheader40:                                     ; preds = %.preheader40.preheader, %41
  %indvars.iv59 = phi i64 [ 0, %.preheader40.preheader ], [ %indvars.iv.next60, %41 ]
  br label %.preheader39

.preheader39:                                     ; preds = %.preheader40, %._crit_edge45
  %.03346 = phi i32 [ 0, %.preheader40 ], [ %40, %._crit_edge45 ]
  %24 = load i32, ptr %11, align 4
  %.not51 = icmp ult i32 %24, 536870912
  br i1 %.not51, label %._crit_edge45, label %.lr.ph44

.lr.ph44:                                         ; preds = %.preheader39
  %25 = lshr i32 %24, 29
  %26 = shl nuw i32 1, %.03346
  %wide.trip.count56 = zext nneg i32 %25 to i64
  br label %27

27:                                               ; preds = %.lr.ph44, %27
  %indvars.iv53 = phi i64 [ 0, %.lr.ph44 ], [ %indvars.iv.next54, %27 ]
  %.03642 = phi i32 [ 0, %.lr.ph44 ], [ %.137, %27 ]
  %28 = getelementptr inbounds nuw [16 x ptr], ptr %5, i64 0, i64 %indvars.iv53
  %29 = load ptr, ptr %28, align 8, !tbaa !48
  %30 = getelementptr inbounds nuw i32, ptr %29, i64 %indvars.iv59
  %31 = load i32, ptr %30, align 4, !tbaa !38
  %32 = and i32 %31, %26
  %.not38 = icmp eq i32 %32, 0
  %33 = trunc nuw nsw i64 %indvars.iv53 to i32
  %34 = shl nuw nsw i32 1, %33
  %35 = select i1 %.not38, i32 0, i32 %34
  %.137 = or i32 %35, %.03642
  %indvars.iv.next54 = add nuw nsw i64 %indvars.iv53, 1
  %exitcond57.not = icmp eq i64 %indvars.iv.next54, %wide.trip.count56
  br i1 %exitcond57.not, label %._crit_edge45.loopexit, label %27, !llvm.loop !57

._crit_edge45.loopexit:                           ; preds = %27
  %36 = sext i32 %.137 to i64
  br label %._crit_edge45

._crit_edge45:                                    ; preds = %._crit_edge45.loopexit, %.preheader39
  %.036.lcssa = phi i64 [ 0, %.preheader39 ], [ %36, %._crit_edge45.loopexit ]
  %37 = getelementptr inbounds i32, ptr %3, i64 %.036.lcssa
  %38 = load i32, ptr %37, align 4, !tbaa !38
  %39 = add nsw i32 %38, 1
  store i32 %39, ptr %37, align 4, !tbaa !38
  %40 = add nuw nsw i32 %.03346, 1
  %exitcond58.not = icmp eq i32 %40, 32
  br i1 %exitcond58.not, label %41, label %.preheader39, !llvm.loop !58

41:                                               ; preds = %._crit_edge45
  %indvars.iv.next60 = add nuw nsw i64 %indvars.iv59, 1
  %exitcond63.not = icmp eq i64 %indvars.iv.next60, %wide.trip.count62
  br i1 %exitcond63.not, label %.preheader.preheader, label %.preheader40, !llvm.loop !59

.preheader.preheader:                             ; preds = %41, %._crit_edge
  br label %.preheader

.preheader:                                       ; preds = %.preheader.preheader, %.preheader
  %indvars.iv64 = phi i64 [ %indvars.iv.next65, %.preheader ], [ 0, %.preheader.preheader ]
  %.049 = phi i32 [ %.1, %.preheader ], [ 0, %.preheader.preheader ]
  %42 = getelementptr inbounds nuw i32, ptr %3, i64 %indvars.iv64
  %43 = load i32, ptr %42, align 4, !tbaa !38
  %.not = icmp eq i32 %43, 0
  %44 = trunc nuw nsw i64 %indvars.iv64 to i32
  %45 = shl nuw nsw i32 1, %44
  %46 = select i1 %.not, i32 0, i32 %45
  %.1 = or i32 %46, %.049
  %indvars.iv.next65 = add nuw nsw i64 %indvars.iv64, 1
  %exitcond67.not = icmp eq i64 %indvars.iv.next65, 16
  br i1 %exitcond67.not, label %47, label %.preheader, !llvm.loop !60

47:                                               ; preds = %.preheader
  call void @llvm.lifetime.end.p0(i64 128, ptr nonnull %5) #23
  ret i32 %.1
}